; ModuleID = '17/279.c'
source_filename = "17/279.c"
target datalayout = "e-m:e-p270:32:32-p271:32:32-p272:64:64-i64:64-f80:128-n8:16:32:64-S128"
target triple = "x86_64-pc-linux-gnu"

@l = common dso_local global i32 0, align 4
@b = common dso_local global [200 x i8] zeroinitializer, align 16
@a = common dso_local global [200 x i8] zeroinitializer, align 16
@.str = private unnamed_addr constant [4 x i8] c"%s\0A\00", align 1
@.str.1 = private unnamed_addr constant [3 x i8] c"%c\00", align 1
@.str.2 = private unnamed_addr constant [2 x i8] c"\0A\00", align 1

; Function Attrs: noinline nounwind uwtable
define dso_local void @f36(i32 %0) #0 {
  %2 = alloca i32, align 4
  %3 = alloca i32, align 4
  store i32 %0, i32* %2, align 4
  %4 = load i32, i32* %2, align 4
  %5 = add nsw i32 %4, 1
  store i32 %5, i32* %3, align 4
  br label %6

6:                                                ; preds = %33, %1
  %7 = load i32, i32* %3, align 4
  %8 = load i32, i32* @l, align 4
  %9 = icmp slt i32 %7, %8
  br i1 %9, label %10, label %36

10:                                               ; preds = %6
  %11 = load i32, i32* %3, align 4
  %12 = sext i32 %11 to i64
  %13 = getelementptr inbounds [200 x i8], [200 x i8]* @b, i64 0, i64 %12
  %14 = load i8, i8* %13, align 1
  %15 = sext i8 %14 to i32
  %16 = icmp ne i32 %15, 32
  br i1 %16, label %17, label %32

17:                                               ; preds = %10
  %18 = load i32, i32* %3, align 4
  %19 = sext i32 %18 to i64
  %20 = getelementptr inbounds [200 x i8], [200 x i8]* @b, i64 0, i64 %19
  %21 = load i8, i8* %20, align 1
  %22 = sext i8 %21 to i32
  %23 = icmp eq i32 %22, 63
  br i1 %23, label %24, label %31

24:                                               ; preds = %17
  %25 = load i32, i32* %3, align 4
  %26 = sext i32 %25 to i64
  %27 = getelementptr inbounds [200 x i8], [200 x i8]* @b, i64 0, i64 %26
  store i8 32, i8* %27, align 1
  %28 = load i32, i32* %2, align 4
  %29 = sext i32 %28 to i64
  %30 = getelementptr inbounds [200 x i8], [200 x i8]* @b, i64 0, i64 %29
  store i8 32, i8* %30, align 1
  br label %31

31:                                               ; preds = %24, %17
  br label %36

32:                                               ; preds = %10
  br label %33

33:                                               ; preds = %32
  %34 = load i32, i32* %3, align 4
  %35 = add nsw i32 %34, 1
  store i32 %35, i32* %3, align 4
  br label %6

36:                                               ; preds = %31, %6
  ret void
}

; Function Attrs: noinline nounwind uwtable
define dso_local i32 @g() #0 {
  %1 = alloca i32, align 4
  %2 = call i32 (i8*, ...) bitcast (i32 (...)* @gets to i32 (i8*, ...)*)(i8* getelementptr inbounds ([200 x i8], [200 x i8]* @a, i64 0, i64 0))
  %3 = load i8, i8* getelementptr inbounds ([200 x i8], [200 x i8]* @a, i64 0, i64 0), align 16
  %4 = sext i8 %3 to i32
  %5 = icmp eq i32 %4, 0
  br i1 %5, label %6, label %7

6:                                                ; preds = %0
  store i32 0, i32* %1, align 4
  br label %8

7:                                                ; preds = %0
  store i32 1, i32* %1, align 4
  br label %8

8:                                                ; preds = %7, %6
  %9 = load i32, i32* %1, align 4
  ret i32 %9
}

declare dso_local i32 @gets(...) #1

; Function Attrs: noinline nounwind uwtable
define dso_local void @k() #0 {
  %1 = alloca i32, align 4
  %2 = alloca i32, align 4
  %3 = alloca i32, align 4
  %4 = call i64 @strlen(i8* getelementptr inbounds ([200 x i8], [200 x i8]* @a, i64 0, i64 0)) #3
  %5 = trunc i64 %4 to i32
  store i32 %5, i32* @l, align 4
  store i32 0, i32* %2, align 4
  store i32 0, i32* %1, align 4
  br label %6

6:                                                ; preds = %40, %0
  %7 = load i32, i32* %1, align 4
  %8 = load i32, i32* @l, align 4
  %9 = icmp slt i32 %7, %8
  br i1 %9, label %10, label %43

10:                                               ; preds = %6
  %11 = load i32, i32* %1, align 4
  %12 = sext i32 %11 to i64
  %13 = getelementptr inbounds [200 x i8], [200 x i8]* @b, i64 0, i64 %12
  store i8 32, i8* %13, align 1
  %14 = load i32, i32* %1, align 4
  %15 = sext i32 %14 to i64
  %16 = getelementptr inbounds [200 x i8], [200 x i8]* @a, i64 0, i64 %15
  %17 = load i8, i8* %16, align 1
  %18 = sext i8 %17 to i32
  %19 = icmp eq i32 %18, 40
  br i1 %19, label %20, label %26

20:                                               ; preds = %10
  %21 = load i32, i32* %1, align 4
  %22 = sext i32 %21 to i64
  %23 = getelementptr inbounds [200 x i8], [200 x i8]* @b, i64 0, i64 %22
  store i8 36, i8* %23, align 1
  %24 = load i32, i32* %2, align 4
  %25 = add nsw i32 %24, 1
  store i32 %25, i32* %2, align 4
  br label %26

26:                                               ; preds = %20, %10
  %27 = load i32, i32* %1, align 4
  %28 = sext i32 %27 to i64
  %29 = getelementptr inbounds [200 x i8], [200 x i8]* @a, i64 0, i64 %28
  %30 = load i8, i8* %29, align 1
  %31 = sext i8 %30 to i32
  %32 = icmp eq i32 %31, 41
  br i1 %32, label %33, label %39

33:                                               ; preds = %26
  %34 = load i32, i32* %1, align 4
  %35 = sext i32 %34 to i64
  %36 = getelementptr inbounds [200 x i8], [200 x i8]* @b, i64 0, i64 %35
  store i8 63, i8* %36, align 1
  %37 = load i32, i32* %2, align 4
  %38 = add nsw i32 %37, 1
  store i32 %38, i32* %2, align 4
  br label %39

39:                                               ; preds = %33, %26
  br label %40

40:                                               ; preds = %39
  %41 = load i32, i32* %1, align 4
  %42 = add nsw i32 %41, 1
  store i32 %42, i32* %1, align 4
  br label %6

43:                                               ; preds = %6
  store i32 1, i32* %3, align 4
  br label %44

44:                                               ; preds = %67, %43
  %45 = load i32, i32* %3, align 4
  %46 = load i32, i32* %2, align 4
  %47 = icmp sle i32 %45, %46
  br i1 %47, label %48, label %70

48:                                               ; preds = %44
  store i32 0, i32* %1, align 4
  br label %49

49:                                               ; preds = %63, %48
  %50 = load i32, i32* %1, align 4
  %51 = load i32, i32* @l, align 4
  %52 = icmp slt i32 %50, %51
  br i1 %52, label %53, label %66

53:                                               ; preds = %49
  %54 = load i32, i32* %1, align 4
  %55 = sext i32 %54 to i64
  %56 = getelementptr inbounds [200 x i8], [200 x i8]* @b, i64 0, i64 %55
  %57 = load i8, i8* %56, align 1
  %58 = sext i8 %57 to i32
  %59 = icmp eq i32 %58, 36
  br i1 %59, label %60, label %62

60:                                               ; preds = %53
  %61 = load i32, i32* %1, align 4
  call void @f36(i32 %61)
  br label %62

62:                                               ; preds = %60, %53
  br label %63

63:                                               ; preds = %62
  %64 = load i32, i32* %1, align 4
  %65 = add nsw i32 %64, 1
  store i32 %65, i32* %1, align 4
  br label %49

66:                                               ; preds = %49
  br label %67

67:                                               ; preds = %66
  %68 = load i32, i32* %3, align 4
  %69 = add nsw i32 %68, 1
  store i32 %69, i32* %3, align 4
  br label %44

70:                                               ; preds = %44
  %71 = call i32 (i8*, ...) @printf(i8* getelementptr inbounds ([4 x i8], [4 x i8]* @.str, i64 0, i64 0), i8* getelementptr inbounds ([200 x i8], [200 x i8]* @a, i64 0, i64 0))
  store i32 0, i32* %1, align 4
  br label %72

72:                                               ; preds = %83, %70
  %73 = load i32, i32* %1, align 4
  %74 = load i32, i32* @l, align 4
  %75 = icmp slt i32 %73, %74
  br i1 %75, label %76, label %86

76:                                               ; preds = %72
  %77 = load i32, i32* %1, align 4
  %78 = sext i32 %77 to i64
  %79 = getelementptr inbounds [200 x i8], [200 x i8]* @b, i64 0, i64 %78
  %80 = load i8, i8* %79, align 1
  %81 = sext i8 %80 to i32
  %82 = call i32 (i8*, ...) @printf(i8* getelementptr inbounds ([3 x i8], [3 x i8]* @.str.1, i64 0, i64 0), i32 %81)
  br label %83

83:                                               ; preds = %76
  %84 = load i32, i32* %1, align 4
  %85 = add nsw i32 %84, 1
  store i32 %85, i32* %1, align 4
  br label %72

86:                                               ; preds = %72
  %87 = call i32 (i8*, ...) @printf(i8* getelementptr inbounds ([2 x i8], [2 x i8]* @.str.2, i64 0, i64 0))
  store i8 0, i8* getelementptr inbounds ([200 x i8], [200 x i8]* @a, i64 0, i64 0), align 16
  ret void
}

; Function Attrs: nounwind readonly
declare dso_local i64 @strlen(i8*) #2

declare dso_local i32 @printf(i8*, ...) #1

; Function Attrs: noinline nounwind uwtable
define dso_local i32 @main() #0 {
  %1 = alloca i32, align 4
  %2 = alloca i32, align 4
  store i32 0, i32* %1, align 4
  store i32 1, i32* %2, align 4
  br label %3

3:                                                ; preds = %11, %0
  %4 = load i32, i32* %2, align 4
  %5 = icmp eq i32 %4, 1
  br i1 %5, label %6, label %12

6:                                                ; preds = %3
  %7 = call i32 @g()
  store i32 %7, i32* %2, align 4
  %8 = load i32, i32* %2, align 4
  %9 = icmp eq i32 %8, 0
  br i1 %9, label %10, label %11

10:                                               ; preds = %6
  br label %12

11:                                               ; preds = %6
  call void @k()
  br label %3

12:                                               ; preds = %10, %3
  ret i32 0
}


!llvm.module.flags = !{!0}
!llvm.ident = !{!1}

!0 = !{i32 1, !"wchar_size", i32 4}
!1 = !{!"clang version 10.0.0-4ubuntu1 "}
